; Function Attrs: mustprogress nofree norecurse nosync nounwind willreturn memory(read, inaccessiblemem: none) uwtable
define dso_local noundef zeroext i1 @_ZN4llvm10AArch64_MC11isZeroIdiomERKNS_6MCInstE(ptr noundef nonnull readonly align 8 captures(none) dereferenceable(128) %0) local_unnamed_addr #0 {
  %2 = load i32, ptr %0, align 8
  switch i32 %2, label %16 [
    i32 4874, label %3
    i32 4876, label %3
  ]

3:                                                ; preds = %1, %1
  %4 = getelementptr inbounds nuw i8, ptr %0, i64 16
  %5 = load ptr, ptr %4, align 8
  %6 = getelementptr inbounds nuw i8, ptr %5, i64 16
  %7 = load i8, ptr %6, align 8
  %8 = icmp eq i8 %7, 1
  br i1 %8, label %9, label %16

9:                                                ; preds = %3
  %10 = getelementptr inbounds nuw i8, ptr %5, i64 24
  %11 = load i32, ptr %10, align 8
  %.off = add i32 %11, -11
  %switch = icmp ult i32 %.off, 2
  br i1 %switch, label %12, label %16

12:                                               ; preds = %9
  %13 = getelementptr inbounds nuw i8, ptr %5, i64 40
  %14 = load i64, ptr %13, align 8
  %15 = icmp eq i64 %14, 0
  br label %16

16:                                               ; preds = %9, %1, %3, %12
  %.0 = phi i1 [ false, %3 ], [ %15, %12 ], [ false, %1 ], [ false, %9 ]
  ret i1 %.0
}